target datalayout = "e-m:e-p270:32:32-p271:32:32-p272:64:64-i64:64-i128:128-f80:128-n8:16:32:64-S128"
target triple = "x86_64-pc-linux-gnu"

@.str.94 = private unnamed_addr constant [6 x i8] c"%s/%s\00", align 1
@.str.95 = private unnamed_addr constant [7 x i8] c"pg_wal\00", align 1
@.str.96 = private unnamed_addr constant [2 x i8] c".\00", align 1
@.str.97 = private unnamed_addr constant [7 x i8] c"PGDATA\00", align 1
@.str.98 = private unnamed_addr constant [31 x i8] c"could not locate WAL file \22%s\22\00", align 1
@.str.99 = private unnamed_addr constant [28 x i8] c"could not find any WAL file\00", align 1

; Function Attrs: nounwind uwtable
define internal ptr @identify_target_directory(ptr noundef %0, ptr noundef %1) #0 {
  %3 = alloca ptr, align 8
  %4 = alloca ptr, align 8
  %5 = alloca ptr, align 8
  %6 = alloca [1024 x i8], align 16
  %7 = alloca i32, align 4
  %8 = alloca ptr, align 8
  store ptr %0, ptr %4, align 8
  store ptr %1, ptr %5, align 8
  call void @llvm.lifetime.start.p0(i64 1024, ptr %6) #10
  %9 = load ptr, ptr %4, align 8
  %10 = icmp ne ptr %9, null
  br i1 %10, label %11, label %29

11:                                               ; preds = %2
  %12 = load ptr, ptr %4, align 8
  %13 = load ptr, ptr %5, align 8
  %14 = call zeroext i1 @search_directory(ptr noundef %12, ptr noundef %13)
  br i1 %14, label %15, label %18

15:                                               ; preds = %11
  %16 = load ptr, ptr %4, align 8
  %17 = call ptr @pg_strdup(ptr noundef %16)
  store ptr %17, ptr %3, align 8
  store i32 1, ptr %7, align 4
  br label %71

18:                                               ; preds = %11
  %19 = getelementptr inbounds [1024 x i8], ptr %6, i64 0, i64 0
  %20 = load ptr, ptr %4, align 8
  %21 = call i32 (ptr, i64, ptr, ...) @pg_snprintf(ptr noundef %19, i64 noundef 1024, ptr noundef @.str.94, ptr noundef %20, ptr noundef @.str.95)
  %22 = getelementptr inbounds [1024 x i8], ptr %6, i64 0, i64 0
  %23 = load ptr, ptr %5, align 8
  %24 = call zeroext i1 @search_directory(ptr noundef %22, ptr noundef %23)
  br i1 %24, label %25, label %28

25:                                               ; preds = %18
  %26 = getelementptr inbounds [1024 x i8], ptr %6, i64 0, i64 0
  %27 = call ptr @pg_strdup(ptr noundef %26)
  store ptr %27, ptr %3, align 8
  store i32 1, ptr %7, align 4
  br label %71

28:                                               ; preds = %18
  br label %58

29:                                               ; preds = %2
  call void @llvm.lifetime.start.p0(i64 8, ptr %8) #10
  %30 = load ptr, ptr %5, align 8
  %31 = call zeroext i1 @search_directory(ptr noundef @.str.96, ptr noundef %30)
  br i1 %31, label %32, label %34

32:                                               ; preds = %29
  %33 = call ptr @pg_strdup(ptr noundef @.str.96)
  store ptr %33, ptr %3, align 8
  store i32 1, ptr %7, align 4
  br label %55

34:                                               ; preds = %29
  %35 = load ptr, ptr %5, align 8
  %36 = call zeroext i1 @search_directory(ptr noundef @.str.95, ptr noundef %35)
  br i1 %36, label %37, label %39

37:                                               ; preds = %34
  %38 = call ptr @pg_strdup(ptr noundef @.str.95)
  store ptr %38, ptr %3, align 8
  store i32 1, ptr %7, align 4
  br label %55

39:                                               ; preds = %34
  %40 = call ptr @getenv(ptr noundef @.str.97) #10
  store ptr %40, ptr %8, align 8
  %41 = load ptr, ptr %8, align 8
  %42 = icmp ne ptr %41, null
  br i1 %42, label %43, label %54

43:                                               ; preds = %39
  %44 = getelementptr inbounds [1024 x i8], ptr %6, i64 0, i64 0
  %45 = load ptr, ptr %8, align 8
  %46 = call i32 (ptr, i64, ptr, ...) @pg_snprintf(ptr noundef %44, i64 noundef 1024, ptr noundef @.str.94, ptr noundef %45, ptr noundef @.str.95)
  %47 = getelementptr inbounds [1024 x i8], ptr %6, i64 0, i64 0
  %48 = load ptr, ptr %5, align 8
  %49 = call zeroext i1 @search_directory(ptr noundef %47, ptr noundef %48)
  br i1 %49, label %50, label %53

50:                                               ; preds = %43
  %51 = getelementptr inbounds [1024 x i8], ptr %6, i64 0, i64 0
  %52 = call ptr @pg_strdup(ptr noundef %51)
  store ptr %52, ptr %3, align 8
  store i32 1, ptr %7, align 4
  br label %55

53:                                               ; preds = %43
  br label %54

54:                                               ; preds = %53, %39
  store i32 0, ptr %7, align 4
  br label %55

55:                                               ; preds = %54, %50, %37, %32
  call void @llvm.lifetime.end.p0(i64 8, ptr %8) #10
  %56 = load i32, ptr %7, align 4
  switch i32 %56, label %71 [
    i32 0, label %57
  ]

57:                                               ; preds = %55
  br label %58

58:                                               ; preds = %57, %28
  %59 = load ptr, ptr %5, align 8
  %60 = icmp ne ptr %59, null
  br i1 %60, label %61, label %66

61:                                               ; preds = %58
  br label %62

62:                                               ; preds = %61
  %63 = load ptr, ptr %5, align 8
  call void (i32, i32, ptr, ...) @pg_log_generic(i32 noundef 4, i32 noundef 0, ptr noundef @.str.98, ptr noundef %63)
  call void @exit(i32 noundef 1) #12
  unreachable

64:                                               ; No predecessors!
  br label %65

65:                                               ; preds = %64
  br label %70

66:                                               ; preds = %58
  br label %67

67:                                               ; preds = %66
  call void (i32, i32, ptr, ...) @pg_log_generic(i32 noundef 4, i32 noundef 0, ptr noundef @.str.99)
  call void @exit(i32 noundef 1) #12
  unreachable

68:                                               ; No predecessors!
  br label %69

69:                                               ; preds = %68
  br label %70

70:                                               ; preds = %69, %65
  store ptr null, ptr %3, align 8
  store i32 1, ptr %7, align 4
  br label %71

71:                                               ; preds = %70, %55, %25, %15
  call void @llvm.lifetime.end.p0(i64 1024, ptr %6) #10
  %72 = load ptr, ptr %3, align 8
  ret ptr %72
}